; Function Attrs: mustprogress nounwind uwtable
define hidden void @_ZN16ZObjectAllocator15undo_alloc_pageEP5ZPage(ptr nocapture noundef nonnull readonly align 8 dereferenceable(40) %0, ptr noundef %1) local_unnamed_addr #1 align 2 {
  %3 = load ptr, ptr @_ZN4ZCPU9_affinityE, align 8
  %4 = tail call align 4 ptr @llvm.threadlocal.address.p0(ptr align 4 @_ZN4ZCPU4_cpuE)
  %5 = load i32, ptr %4, align 4
  %6 = zext i32 %5 to i64
  %7 = getelementptr inbounds %class.PaddedEnd, ptr %3, i64 %6
  %8 = load ptr, ptr %7, align 8
  %9 = tail call align 8 ptr @llvm.threadlocal.address.p0(ptr align 8 @_ZN4ZCPU5_selfE)
  %10 = load ptr, ptr %9, align 8
  %11 = icmp eq ptr %8, %10
  br i1 %11, label %_ZN14ZPerCPUStorage2idEv.exit, label %12

12:                                               ; preds = %2
  %13 = tail call noundef i32 @_ZN4ZCPU7id_slowEv() #8
  %.pre = zext i32 %13 to i64
  br label %_ZN14ZPerCPUStorage2idEv.exit

_ZN14ZPerCPUStorage2idEv.exit:                    ; preds = %2, %12
  %.pre-phi = phi i64 [ %6, %2 ], [ %.pre, %12 ]
  %14 = getelementptr inbounds i8, ptr %0, i64 16
  %15 = load i64, ptr %14, align 8
  %16 = shl nuw nsw i64 %.pre-phi, 12
  %17 = add i64 %16, %15
  %18 = inttoptr i64 %17 to ptr
  %19 = getelementptr inbounds i8, ptr %1, i64 16
  %20 = getelementptr inbounds i8, ptr %1, i64 24
  %21 = load i64, ptr %20, align 8
  %22 = load i64, ptr %19, align 8
  %23 = sub i64 %21, %22
  %24 = tail call noundef i64 asm sideeffect "lock xaddq $0,($2)", "=r,0,r,~{cc},~{memory},~{dirflag},~{fpsr},~{flags}"(i64 %23, ptr %18) #8, !srcloc !9
  %25 = load ptr, ptr @_ZN5ZHeap5_heapE, align 8
  tail call void @_ZN5ZHeap15undo_alloc_pageEP5ZPage(ptr noundef nonnull align 64 dereferenceable(15937) %25, ptr noundef nonnull %1) #8
  ret void
}